; ModuleID = '9/310.c'
source_filename = "9/310.c"
target datalayout = "e-m:e-p270:32:32-p271:32:32-p272:64:64-i64:64-f80:128-n8:16:32:64-S128"
target triple = "x86_64-pc-linux-gnu"

@.str = private unnamed_addr constant [3 x i8] c"%d\00", align 1
@.str.1 = private unnamed_addr constant [3 x i8] c"%s\00", align 1
@.str.2 = private unnamed_addr constant [4 x i8] c"%s\0A\00", align 1

; Function Attrs: noinline nounwind uwtable
define dso_local i32 @main() #0 {
  %1 = alloca i32, align 4
  %2 = alloca i32, align 4
  %3 = alloca i32, align 4
  %4 = alloca [100 x i32], align 16
  %5 = alloca i32, align 4
  %6 = alloca i32, align 4
  %7 = alloca [100 x i32], align 16
  %8 = alloca i32, align 4
  %9 = alloca [100 x [11 x i8]], align 16
  %10 = alloca [100 x [11 x i8]], align 16
  %11 = alloca [200 x i8], align 16
  %12 = alloca i32, align 4
  store i32 0, i32* %1, align 4
  store i32 0, i32* %6, align 4
  store i32 0, i32* %8, align 4
  %13 = call i32 (i8*, ...) @__isoc99_scanf(i8* getelementptr inbounds ([3 x i8], [3 x i8]* @.str, i64 0, i64 0), i32* %2)
  store i32 0, i32* %3, align 4
  br label %14

14:                                               ; preds = %28, %0
  %15 = load i32, i32* %3, align 4
  %16 = load i32, i32* %2, align 4
  %17 = icmp slt i32 %15, %16
  br i1 %17, label %18, label %31

18:                                               ; preds = %14
  %19 = load i32, i32* %3, align 4
  %20 = sext i32 %19 to i64
  %21 = getelementptr inbounds [100 x [11 x i8]], [100 x [11 x i8]]* %9, i64 0, i64 %20
  %22 = getelementptr inbounds [11 x i8], [11 x i8]* %21, i64 0, i64 0
  %23 = call i32 (i8*, ...) @__isoc99_scanf(i8* getelementptr inbounds ([3 x i8], [3 x i8]* @.str.1, i64 0, i64 0), i8* %22)
  %24 = load i32, i32* %3, align 4
  %25 = sext i32 %24 to i64
  %26 = getelementptr inbounds [100 x i32], [100 x i32]* %4, i64 0, i64 %25
  %27 = call i32 (i8*, ...) @__isoc99_scanf(i8* getelementptr inbounds ([3 x i8], [3 x i8]* @.str, i64 0, i64 0), i32* %26)
  br label %28

28:                                               ; preds = %18
  %29 = load i32, i32* %3, align 4
  %30 = add nsw i32 %29, 1
  store i32 %30, i32* %3, align 4
  br label %14

31:                                               ; preds = %14
  store i32 0, i32* %3, align 4
  br label %32

32:                                               ; preds = %62, %31
  %33 = load i32, i32* %3, align 4
  %34 = load i32, i32* %2, align 4
  %35 = icmp slt i32 %33, %34
  br i1 %35, label %36, label %65

36:                                               ; preds = %32
  %37 = load i32, i32* %3, align 4
  %38 = sext i32 %37 to i64
  %39 = getelementptr inbounds [100 x i32], [100 x i32]* %4, i64 0, i64 %38
  %40 = load i32, i32* %39, align 4
  %41 = icmp sge i32 %40, 60
  br i1 %41, label %42, label %61

42:                                               ; preds = %36
  %43 = load i32, i32* %6, align 4
  %44 = sext i32 %43 to i64
  %45 = getelementptr inbounds [100 x [11 x i8]], [100 x [11 x i8]]* %10, i64 0, i64 %44
  %46 = getelementptr inbounds [11 x i8], [11 x i8]* %45, i64 0, i64 0
  %47 = load i32, i32* %3, align 4
  %48 = sext i32 %47 to i64
  %49 = getelementptr inbounds [100 x [11 x i8]], [100 x [11 x i8]]* %9, i64 0, i64 %48
  %50 = getelementptr inbounds [11 x i8], [11 x i8]* %49, i64 0, i64 0
  %51 = call i8* @strcpy(i8* %46, i8* %50) #3
  %52 = load i32, i32* %3, align 4
  %53 = sext i32 %52 to i64
  %54 = getelementptr inbounds [100 x i32], [100 x i32]* %4, i64 0, i64 %53
  %55 = load i32, i32* %54, align 4
  %56 = load i32, i32* %6, align 4
  %57 = sext i32 %56 to i64
  %58 = getelementptr inbounds [100 x i32], [100 x i32]* %7, i64 0, i64 %57
  store i32 %55, i32* %58, align 4
  %59 = load i32, i32* %6, align 4
  %60 = add nsw i32 %59, 1
  store i32 %60, i32* %6, align 4
  br label %61

61:                                               ; preds = %42, %36
  br label %62

62:                                               ; preds = %61
  %63 = load i32, i32* %3, align 4
  %64 = add nsw i32 %63, 1
  store i32 %64, i32* %3, align 4
  br label %32

65:                                               ; preds = %32
  %66 = load i32, i32* %6, align 4
  %67 = sub nsw i32 %66, 1
  store i32 %67, i32* %5, align 4
  br label %68

68:                                               ; preds = %133, %65
  %69 = load i32, i32* %5, align 4
  %70 = icmp sgt i32 %69, 0
  br i1 %70, label %71, label %136

71:                                               ; preds = %68
  store i32 0, i32* %8, align 4
  br label %72

72:                                               ; preds = %129, %71
  %73 = load i32, i32* %8, align 4
  %74 = load i32, i32* %5, align 4
  %75 = icmp slt i32 %73, %74
  br i1 %75, label %76, label %132

76:                                               ; preds = %72
  %77 = load i32, i32* %8, align 4
  %78 = sext i32 %77 to i64
  %79 = getelementptr inbounds [100 x i32], [100 x i32]* %7, i64 0, i64 %78
  %80 = load i32, i32* %79, align 4
  %81 = load i32, i32* %8, align 4
  %82 = add nsw i32 %81, 1
  %83 = sext i32 %82 to i64
  %84 = getelementptr inbounds [100 x i32], [100 x i32]* %7, i64 0, i64 %83
  %85 = load i32, i32* %84, align 4
  %86 = icmp slt i32 %80, %85
  br i1 %86, label %87, label %128

87:                                               ; preds = %76
  %88 = getelementptr inbounds [200 x i8], [200 x i8]* %11, i64 0, i64 0
  %89 = load i32, i32* %8, align 4
  %90 = sext i32 %89 to i64
  %91 = getelementptr inbounds [100 x [11 x i8]], [100 x [11 x i8]]* %10, i64 0, i64 %90
  %92 = getelementptr inbounds [11 x i8], [11 x i8]* %91, i64 0, i64 0
  %93 = call i8* @strcpy(i8* %88, i8* %92) #3
  %94 = load i32, i32* %8, align 4
  %95 = sext i32 %94 to i64
  %96 = getelementptr inbounds [100 x [11 x i8]], [100 x [11 x i8]]* %10, i64 0, i64 %95
  %97 = getelementptr inbounds [11 x i8], [11 x i8]* %96, i64 0, i64 0
  %98 = load i32, i32* %8, align 4
  %99 = add nsw i32 %98, 1
  %100 = sext i32 %99 to i64
  %101 = getelementptr inbounds [100 x [11 x i8]], [100 x [11 x i8]]* %10, i64 0, i64 %100
  %102 = getelementptr inbounds [11 x i8], [11 x i8]* %101, i64 0, i64 0
  %103 = call i8* @strcpy(i8* %97, i8* %102) #3
  %104 = load i32, i32* %8, align 4
  %105 = add nsw i32 %104, 1
  %106 = sext i32 %105 to i64
  %107 = getelementptr inbounds [100 x [11 x i8]], [100 x [11 x i8]]* %10, i64 0, i64 %106
  %108 = getelementptr inbounds [11 x i8], [11 x i8]* %107, i64 0, i64 0
  %109 = getelementptr inbounds [200 x i8], [200 x i8]* %11, i64 0, i64 0
  %110 = call i8* @strcpy(i8* %108, i8* %109) #3
  %111 = load i32, i32* %8, align 4
  %112 = sext i32 %111 to i64
  %113 = getelementptr inbounds [100 x i32], [100 x i32]* %7, i64 0, i64 %112
  %114 = load i32, i32* %113, align 4
  store i32 %114, i32* %12, align 4
  %115 = load i32, i32* %8, align 4
  %116 = add nsw i32 %115, 1
  %117 = sext i32 %116 to i64
  %118 = getelementptr inbounds [100 x i32], [100 x i32]* %7, i64 0, i64 %117
  %119 = load i32, i32* %118, align 4
  %120 = load i32, i32* %8, align 4
  %121 = sext i32 %120 to i64
  %122 = getelementptr inbounds [100 x i32], [100 x i32]* %7, i64 0, i64 %121
  store i32 %119, i32* %122, align 4
  %123 = load i32, i32* %12, align 4
  %124 = load i32, i32* %8, align 4
  %125 = add nsw i32 %124, 1
  %126 = sext i32 %125 to i64
  %127 = getelementptr inbounds [100 x i32], [100 x i32]* %7, i64 0, i64 %126
  store i32 %123, i32* %127, align 4
  br label %128

128:                                              ; preds = %87, %76
  br label %129

129:                                              ; preds = %128
  %130 = load i32, i32* %8, align 4
  %131 = add nsw i32 %130, 1
  store i32 %131, i32* %8, align 4
  br label %72

132:                                              ; preds = %72
  br label %133

133:                                              ; preds = %132
  %134 = load i32, i32* %5, align 4
  %135 = add nsw i32 %134, -1
  store i32 %135, i32* %5, align 4
  br label %68

136:                                              ; preds = %68
  store i32 0, i32* %5, align 4
  br label %137

137:                                              ; preds = %147, %136
  %138 = load i32, i32* %5, align 4
  %139 = load i32, i32* %6, align 4
  %140 = icmp slt i32 %138, %139
  br i1 %140, label %141, label %150

141:                                              ; preds = %137
  %142 = load i32, i32* %5, align 4
  %143 = sext i32 %142 to i64
  %144 = getelementptr inbounds [100 x [11 x i8]], [100 x [11 x i8]]* %10, i64 0, i64 %143
  %145 = getelementptr inbounds [11 x i8], [11 x i8]* %144, i64 0, i64 0
  %146 = call i32 (i8*, ...) @printf(i8* getelementptr inbounds ([4 x i8], [4 x i8]* @.str.2, i64 0, i64 0), i8* %145)
  br label %147

147:                                              ; preds = %141
  %148 = load i32, i32* %5, align 4
  %149 = add nsw i32 %148, 1
  store i32 %149, i32* %5, align 4
  br label %137

150:                                              ; preds = %137
  store i32 0, i32* %3, align 4
  br label %151

151:                                              ; preds = %168, %150
  %152 = load i32, i32* %3, align 4
  %153 = load i32, i32* %2, align 4
  %154 = icmp slt i32 %152, %153
  br i1 %154, label %155, label %171

155:                                              ; preds = %151
  %156 = load i32, i32* %3, align 4
  %157 = sext i32 %156 to i64
  %158 = getelementptr inbounds [100 x i32], [100 x i32]* %4, i64 0, i64 %157
  %159 = load i32, i32* %158, align 4
  %160 = icmp slt i32 %159, 60
  br i1 %160, label %161, label %167

161:                                              ; preds = %155
  %162 = load i32, i32* %3, align 4
  %163 = sext i32 %162 to i64
  %164 = getelementptr inbounds [100 x [11 x i8]], [100 x [11 x i8]]* %9, i64 0, i64 %163
  %165 = getelementptr inbounds [11 x i8], [11 x i8]* %164, i64 0, i64 0
  %166 = call i32 (i8*, ...) @printf(i8* getelementptr inbounds ([4 x i8], [4 x i8]* @.str.2, i64 0, i64 0), i8* %165)
  br label %167

167:                                              ; preds = %161, %155
  br label %168

168:                                              ; preds = %167
  %169 = load i32, i32* %3, align 4
  %170 = add nsw i32 %169, 1
  store i32 %170, i32* %3, align 4
  br label %151

171:                                              ; preds = %151
  ret i32 0
}

declare dso_local i32 @__isoc99_scanf(i8*, ...) #1

; Function Attrs: nounwind
declare dso_local i8* @strcpy(i8*, i8*) #2

declare dso_local i32 @printf(i8*, ...) #1


!llvm.module.flags = !{!0}
!llvm.ident = !{!1}

!0 = !{i32 1, !"wchar_size", i32 4}
!1 = !{!"clang version 10.0.0-4ubuntu1 "}
